; Function Attrs: mustprogress uwtable
define hidden noundef ptr @_ZN11tbv_manager8allocateEm(ptr noundef nonnull align 8 dereferenceable(552) %0, i64 noundef %1) local_unnamed_addr #5 align 2 {
  %3 = tail call noundef ptr @_ZN24fixed_bit_vector_manager8allocateEv(ptr noundef nonnull align 8 dereferenceable(552) %0)
  %4 = tail call noundef nonnull align 4 dereferenceable(4) ptr @_ZNK24fixed_bit_vector_manager5fill0ER16fixed_bit_vector(ptr noundef nonnull align 8 dereferenceable(552) %0, ptr noundef nonnull align 4 dereferenceable(4) %3)
  %5 = getelementptr inbounds nuw i8, ptr %0, i64 524
  %6 = load i32, ptr %5, align 4, !tbaa !10
  %7 = zext i32 %6 to i64
  tail call void @llvm.memset.p0.i64(ptr nonnull align 4 dereferenceable(4) %3, i8 -86, i64 %7, i1 false)
  %8 = getelementptr inbounds nuw i8, ptr %0, i64 520
  %9 = load i32, ptr %8, align 8, !tbaa !16
  %.not12 = icmp ult i32 %9, 2
  br i1 %.not12, label %select.unfold._crit_edge, label %.lr.ph.preheader

.lr.ph.preheader:                                 ; preds = %2
  %10 = lshr i32 %9, 1
  %spec.select = tail call i32 @llvm.umin.i32(i32 %10, i32 64)
  br label %.lr.ph

select.unfold._crit_edge:                         ; preds = %select.unfold, %2
  ret ptr %3

.lr.ph:                                           ; preds = %.lr.ph.preheader, %select.unfold
  %.in = phi i32 [ %11, %select.unfold ], [ %spec.select, %.lr.ph.preheader ]
  %11 = add nsw i32 %.in, -1
  %12 = zext nneg i32 %11 to i64
  %13 = shl nuw i64 1, %12
  %14 = and i64 %13, %1
  %.not8 = icmp eq i64 %14, 0
  %15 = shl i32 %11, 1
  %16 = lshr i32 %15, 5
  %17 = zext nneg i32 %16 to i64
  %18 = getelementptr inbounds nuw [1 x i32], ptr %3, i64 0, i64 %17
  %19 = load i32, ptr %18, align 4, !tbaa !17
  br i1 %.not8, label %28, label %20

20:                                               ; preds = %.lr.ph
  %21 = xor i32 %19, -1
  %22 = and i32 %15, 30
  %23 = shl nuw nsw i32 1, %22
  %24 = and i32 %23, %21
  %25 = shl nuw i32 2, %22
  %26 = and i32 %19, %25
  %27 = or disjoint i32 %24, %26
  br label %select.unfold

28:                                               ; preds = %.lr.ph
  %29 = and i32 %15, 30
  %30 = shl nuw nsw i32 1, %29
  %31 = and i32 %19, %30
  %32 = xor i32 %19, -1
  %33 = shl nuw i32 2, %29
  %34 = and i32 %33, %32
  %35 = or disjoint i32 %31, %34
  br label %select.unfold

select.unfold:                                    ; preds = %28, %20
  %.sink13 = phi i32 [ %35, %28 ], [ %27, %20 ]
  %36 = xor i32 %.sink13, %19
  store i32 %36, ptr %18, align 4, !tbaa !17
  %.not = icmp eq i32 %11, 0
  br i1 %.not, label %select.unfold._crit_edge, label %.lr.ph, !llvm.loop !18
}